target datalayout = "e-m:e-p270:32:32-p271:32:32-p272:64:64-i64:64-i128:128-f80:128-n8:16:32:64-S128"
target triple = "x86_64-pc-linux-gnu"

%struct.AVStream = type { ptr, i32, i32, ptr, ptr, %struct.AVRational, i64, i64, i64, i32, i32, %struct.AVRational, ptr, %struct.AVRational, %struct.AVPacket, i32, %struct.AVRational, i32 }
%struct.AVPacket = type { ptr, i64, i64, ptr, i32, i32, i32, ptr, i32, i64, i64, ptr, ptr, %struct.AVRational }
%struct.AVRational = type { i32, i32 }
%struct.PayloadContext = type { i32, i32, ptr, ptr, ptr, ptr, i32, i32, i32, i32 }

@.str.16 = private unnamed_addr constant [41 x i8] c"Too short RTP/HEVC packet, got %d bytes\0A\00", align 1
@.str.17 = private unnamed_addr constant [24 x i8] c"Multi-layer HEVC coding\00", align 1
@.str.18 = private unnamed_addr constant [40 x i8] c"Illegal temporal ID in RTP/HEVC packet\0A\00", align 1
@.str.19 = private unnamed_addr constant [34 x i8] c"Unsupported (HEVC) NAL type (%d)\0A\00", align 1
@start_sequence = internal constant [4 x i8] c"\00\00\00\01", align 1
@.str.20 = private unnamed_addr constant [27 x i8] c" FU type %d with %d bytes\0A\00", align 1
@.str.21 = private unnamed_addr constant [61 x i8] c"Too short RTP/HEVC packet, got %d bytes of NAL unit type %d\0A\00", align 1
@.str.22 = private unnamed_addr constant [55 x i8] c"Illegal combination of S and E bit in RTP/HEVC packet\0A\00", align 1
@.str.23 = private unnamed_addr constant [26 x i8] c"PACI packets for RTP/HEVC\00", align 1

; Function Attrs: nounwind uwtable
define internal i32 @hevc_handle_packet(ptr noundef %0, ptr noundef %1, ptr noundef %2, ptr noundef %3, ptr noundef %4, ptr noundef %5, i32 noundef %6, i16 noundef zeroext %7, i32 noundef %8) #1 {
  %10 = alloca i32, align 4
  %11 = alloca ptr, align 8
  %12 = alloca ptr, align 8
  %13 = alloca ptr, align 8
  %14 = alloca ptr, align 8
  %15 = alloca ptr, align 8
  %16 = alloca ptr, align 8
  %17 = alloca i32, align 4
  %18 = alloca i16, align 2
  %19 = alloca i32, align 4
  %20 = alloca ptr, align 8
  %21 = alloca i32, align 4
  %22 = alloca i32, align 4
  %23 = alloca i32, align 4
  %24 = alloca i32, align 4
  %25 = alloca i32, align 4
  %26 = alloca i32, align 4
  %27 = alloca [2 x i8], align 1
  %28 = alloca i32, align 4
  %29 = alloca i32, align 4
  store ptr %0, ptr %11, align 8, !tbaa !4
  store ptr %1, ptr %12, align 8, !tbaa !11
  store ptr %2, ptr %13, align 8, !tbaa !30
  store ptr %3, ptr %14, align 8, !tbaa !53
  store ptr %4, ptr %15, align 8, !tbaa !55
  store ptr %5, ptr %16, align 8, !tbaa !13
  store i32 %6, ptr %17, align 4, !tbaa !9
  store i16 %7, ptr %18, align 2, !tbaa !57
  store i32 %8, ptr %19, align 4, !tbaa !9
  call void @llvm.lifetime.start.p0(i64 8, ptr %20) #9
  %30 = load ptr, ptr %16, align 8, !tbaa !13
  store ptr %30, ptr %20, align 8, !tbaa !13
  call void @llvm.lifetime.start.p0(i64 4, ptr %21) #9
  call void @llvm.lifetime.start.p0(i64 4, ptr %22) #9
  call void @llvm.lifetime.start.p0(i64 4, ptr %23) #9
  call void @llvm.lifetime.start.p0(i64 4, ptr %24) #9
  call void @llvm.lifetime.start.p0(i64 4, ptr %25) #9
  call void @llvm.lifetime.start.p0(i64 4, ptr %26) #9
  call void @llvm.lifetime.start.p0(i64 2, ptr %27) #9
  call void @llvm.lifetime.start.p0(i64 4, ptr %28) #9
  store i32 0, ptr %28, align 4, !tbaa !9
  %31 = load i32, ptr %17, align 4, !tbaa !9
  %32 = icmp slt i32 %31, 3
  br i1 %32, label %33, label %36

33:                                               ; preds = %9
  %34 = load ptr, ptr %11, align 8, !tbaa !4
  %35 = load i32, ptr %17, align 4, !tbaa !9
  call void (ptr, i32, ptr, ...) @av_log(ptr noundef %34, i32 noundef 16, ptr noundef @.str.16, i32 noundef %35)
  store i32 -1094995529, ptr %10, align 4
  store i32 1, ptr %29, align 4
  br label %216

36:                                               ; preds = %9
  %37 = load ptr, ptr %16, align 8, !tbaa !13
  %38 = getelementptr inbounds i8, ptr %37, i64 0
  %39 = load i8, ptr %38, align 1, !tbaa !59
  %40 = zext i8 %39 to i32
  %41 = ashr i32 %40, 1
  %42 = and i32 %41, 63
  store i32 %42, ptr %23, align 4, !tbaa !9
  %43 = load ptr, ptr %16, align 8, !tbaa !13
  %44 = getelementptr inbounds i8, ptr %43, i64 0
  %45 = load i8, ptr %44, align 1, !tbaa !59
  %46 = zext i8 %45 to i32
  %47 = shl i32 %46, 5
  %48 = and i32 %47, 32
  %49 = load ptr, ptr %16, align 8, !tbaa !13
  %50 = getelementptr inbounds i8, ptr %49, i64 1
  %51 = load i8, ptr %50, align 1, !tbaa !59
  %52 = zext i8 %51 to i32
  %53 = ashr i32 %52, 3
  %54 = and i32 %53, 31
  %55 = or i32 %48, %54
  store i32 %55, ptr %22, align 4, !tbaa !9
  %56 = load ptr, ptr %16, align 8, !tbaa !13
  %57 = getelementptr inbounds i8, ptr %56, i64 1
  %58 = load i8, ptr %57, align 1, !tbaa !59
  %59 = zext i8 %58 to i32
  %60 = and i32 %59, 7
  store i32 %60, ptr %21, align 4, !tbaa !9
  %61 = load i32, ptr %22, align 4, !tbaa !9
  %62 = icmp ne i32 %61, 0
  br i1 %62, label %63, label %65

63:                                               ; preds = %36
  %64 = load ptr, ptr %11, align 8, !tbaa !4
  call void (ptr, ptr, ...) @avpriv_report_missing_feature(ptr noundef %64, ptr noundef @.str.17)
  store i32 -1163346256, ptr %10, align 4
  store i32 1, ptr %29, align 4
  br label %216

65:                                               ; preds = %36
  %66 = load i32, ptr %21, align 4, !tbaa !9
  %67 = icmp ne i32 %66, 0
  br i1 %67, label %70, label %68

68:                                               ; preds = %65
  %69 = load ptr, ptr %11, align 8, !tbaa !4
  call void (ptr, i32, ptr, ...) @av_log(ptr noundef %69, i32 noundef 16, ptr noundef @.str.18)
  store i32 -1094995529, ptr %10, align 4
  store i32 1, ptr %29, align 4
  br label %216

70:                                               ; preds = %65
  %71 = load i32, ptr %23, align 4, !tbaa !9
  %72 = icmp sgt i32 %71, 50
  br i1 %72, label %73, label %76

73:                                               ; preds = %70
  %74 = load ptr, ptr %11, align 8, !tbaa !4
  %75 = load i32, ptr %23, align 4, !tbaa !9
  call void (ptr, i32, ptr, ...) @av_log(ptr noundef %74, i32 noundef 16, ptr noundef @.str.19, i32 noundef %75)
  store i32 -1094995529, ptr %10, align 4
  store i32 1, ptr %29, align 4
  br label %216

76:                                               ; preds = %70
  %77 = load i32, ptr %23, align 4, !tbaa !9
  switch i32 %77, label %79 [
    i32 32, label %78
    i32 33, label %78
    i32 34, label %78
    i32 39, label %78
    i32 48, label %100
    i32 49, label %131
    i32 50, label %207
  ]

78:                                               ; preds = %76, %76, %76, %76
  br label %79

79:                                               ; preds = %76, %78
  %80 = load ptr, ptr %14, align 8, !tbaa !53
  %81 = load i32, ptr %17, align 4, !tbaa !9
  %82 = sext i32 %81 to i64
  %83 = add i64 4, %82
  %84 = trunc i64 %83 to i32
  %85 = call i32 @av_new_packet(ptr noundef %80, i32 noundef %84)
  store i32 %85, ptr %28, align 4, !tbaa !9
  %86 = icmp slt i32 %85, 0
  br i1 %86, label %87, label %89

87:                                               ; preds = %79
  %88 = load i32, ptr %28, align 4, !tbaa !9
  store i32 %88, ptr %10, align 4
  store i32 1, ptr %29, align 4
  br label %216

89:                                               ; preds = %79
  %90 = load ptr, ptr %14, align 8, !tbaa !53
  %91 = getelementptr inbounds nuw %struct.AVPacket, ptr %90, i32 0, i32 3
  %92 = load ptr, ptr %91, align 8, !tbaa !60
  call void @llvm.memcpy.p0.p0.i64(ptr align 1 %92, ptr align 1 @start_sequence, i64 4, i1 false)
  %93 = load ptr, ptr %14, align 8, !tbaa !53
  %94 = getelementptr inbounds nuw %struct.AVPacket, ptr %93, i32 0, i32 3
  %95 = load ptr, ptr %94, align 8, !tbaa !60
  %96 = getelementptr inbounds nuw i8, ptr %95, i64 4
  %97 = load ptr, ptr %16, align 8, !tbaa !13
  %98 = load i32, ptr %17, align 4, !tbaa !9
  %99 = sext i32 %98 to i64
  call void @llvm.memcpy.p0.p0.i64(ptr align 1 %96, ptr align 1 %97, i64 %99, i1 false)
  br label %209

100:                                              ; preds = %76
  %101 = load ptr, ptr %16, align 8, !tbaa !13
  %102 = getelementptr inbounds i8, ptr %101, i64 2
  store ptr %102, ptr %16, align 8, !tbaa !13
  %103 = load i32, ptr %17, align 4, !tbaa !9
  %104 = sub nsw i32 %103, 2
  store i32 %104, ptr %17, align 4, !tbaa !9
  %105 = load ptr, ptr %12, align 8, !tbaa !11
  %106 = getelementptr inbounds nuw %struct.PayloadContext, ptr %105, i32 0, i32 0
  %107 = load i32, ptr %106, align 8, !tbaa !61
  %108 = icmp ne i32 %107, 0
  br i1 %108, label %109, label %114

109:                                              ; preds = %100
  %110 = load ptr, ptr %16, align 8, !tbaa !13
  %111 = getelementptr inbounds i8, ptr %110, i64 2
  store ptr %111, ptr %16, align 8, !tbaa !13
  %112 = load i32, ptr %17, align 4, !tbaa !9
  %113 = sub nsw i32 %112, 2
  store i32 %113, ptr %17, align 4, !tbaa !9
  br label %114

114:                                              ; preds = %109, %100
  %115 = load ptr, ptr %11, align 8, !tbaa !4
  %116 = load ptr, ptr %12, align 8, !tbaa !11
  %117 = load ptr, ptr %14, align 8, !tbaa !53
  %118 = load ptr, ptr %16, align 8, !tbaa !13
  %119 = load i32, ptr %17, align 4, !tbaa !9
  %120 = load ptr, ptr %12, align 8, !tbaa !11
  %121 = getelementptr inbounds nuw %struct.PayloadContext, ptr %120, i32 0, i32 0
  %122 = load i32, ptr %121, align 8, !tbaa !61
  %123 = icmp ne i32 %122, 0
  %124 = select i1 %123, i32 1, i32 0
  %125 = call i32 @ff_h264_handle_aggregated_packet(ptr noundef %115, ptr noundef %116, ptr noundef %117, ptr noundef %118, i32 noundef %119, i32 noundef %124, ptr noundef null, i32 noundef 0)
  store i32 %125, ptr %28, align 4, !tbaa !9
  %126 = load i32, ptr %28, align 4, !tbaa !9
  %127 = icmp slt i32 %126, 0
  br i1 %127, label %128, label %130

128:                                              ; preds = %114
  %129 = load i32, ptr %28, align 4, !tbaa !9
  store i32 %129, ptr %10, align 4
  store i32 1, ptr %29, align 4
  br label %216

130:                                              ; preds = %114
  br label %209

131:                                              ; preds = %76
  %132 = load ptr, ptr %16, align 8, !tbaa !13
  %133 = getelementptr inbounds i8, ptr %132, i64 2
  store ptr %133, ptr %16, align 8, !tbaa !13
  %134 = load i32, ptr %17, align 4, !tbaa !9
  %135 = sub nsw i32 %134, 2
  store i32 %135, ptr %17, align 4, !tbaa !9
  %136 = load ptr, ptr %16, align 8, !tbaa !13
  %137 = getelementptr inbounds i8, ptr %136, i64 0
  %138 = load i8, ptr %137, align 1, !tbaa !59
  %139 = zext i8 %138 to i32
  %140 = and i32 %139, 128
  store i32 %140, ptr %24, align 4, !tbaa !9
  %141 = load ptr, ptr %16, align 8, !tbaa !13
  %142 = getelementptr inbounds i8, ptr %141, i64 0
  %143 = load i8, ptr %142, align 1, !tbaa !59
  %144 = zext i8 %143 to i32
  %145 = and i32 %144, 64
  store i32 %145, ptr %25, align 4, !tbaa !9
  %146 = load ptr, ptr %16, align 8, !tbaa !13
  %147 = getelementptr inbounds i8, ptr %146, i64 0
  %148 = load i8, ptr %147, align 1, !tbaa !59
  %149 = zext i8 %148 to i32
  %150 = and i32 %149, 63
  store i32 %150, ptr %26, align 4, !tbaa !9
  %151 = load ptr, ptr %16, align 8, !tbaa !13
  %152 = getelementptr inbounds i8, ptr %151, i64 1
  store ptr %152, ptr %16, align 8, !tbaa !13
  %153 = load i32, ptr %17, align 4, !tbaa !9
  %154 = sub nsw i32 %153, 1
  store i32 %154, ptr %17, align 4, !tbaa !9
  %155 = load ptr, ptr %12, align 8, !tbaa !11
  %156 = getelementptr inbounds nuw %struct.PayloadContext, ptr %155, i32 0, i32 0
  %157 = load i32, ptr %156, align 8, !tbaa !61
  %158 = icmp ne i32 %157, 0
  br i1 %158, label %159, label %164

159:                                              ; preds = %131
  %160 = load ptr, ptr %16, align 8, !tbaa !13
  %161 = getelementptr inbounds i8, ptr %160, i64 2
  store ptr %161, ptr %16, align 8, !tbaa !13
  %162 = load i32, ptr %17, align 4, !tbaa !9
  %163 = sub nsw i32 %162, 2
  store i32 %163, ptr %17, align 4, !tbaa !9
  br label %164

164:                                              ; preds = %159, %131
  %165 = load ptr, ptr %11, align 8, !tbaa !4
  %166 = load i32, ptr %26, align 4, !tbaa !9
  %167 = load i32, ptr %17, align 4, !tbaa !9
  call void (ptr, i32, ptr, ...) @av_log(ptr noundef %165, i32 noundef 56, ptr noundef @.str.20, i32 noundef %166, i32 noundef %167)
  %168 = load i32, ptr %17, align 4, !tbaa !9
  %169 = icmp sle i32 %168, 0
  br i1 %169, label %170, label %178

170:                                              ; preds = %164
  %171 = load i32, ptr %17, align 4, !tbaa !9
  %172 = icmp slt i32 %171, 0
  br i1 %172, label %173, label %177

173:                                              ; preds = %170
  %174 = load ptr, ptr %11, align 8, !tbaa !4
  %175 = load i32, ptr %17, align 4, !tbaa !9
  %176 = load i32, ptr %23, align 4, !tbaa !9
  call void (ptr, i32, ptr, ...) @av_log(ptr noundef %174, i32 noundef 16, ptr noundef @.str.21, i32 noundef %175, i32 noundef %176)
  store i32 -1094995529, ptr %10, align 4
  store i32 1, ptr %29, align 4
  br label %216

177:                                              ; preds = %170
  store i32 -11, ptr %10, align 4
  store i32 1, ptr %29, align 4
  br label %216

178:                                              ; preds = %164
  %179 = load i32, ptr %24, align 4, !tbaa !9
  %180 = icmp ne i32 %179, 0
  br i1 %180, label %181, label %186

181:                                              ; preds = %178
  %182 = load i32, ptr %25, align 4, !tbaa !9
  %183 = icmp ne i32 %182, 0
  br i1 %183, label %184, label %186

184:                                              ; preds = %181
  %185 = load ptr, ptr %11, align 8, !tbaa !4
  call void (ptr, i32, ptr, ...) @av_log(ptr noundef %185, i32 noundef 16, ptr noundef @.str.22)
  store i32 -1094995529, ptr %10, align 4
  store i32 1, ptr %29, align 4
  br label %216

186:                                              ; preds = %181, %178
  %187 = load ptr, ptr %20, align 8, !tbaa !13
  %188 = getelementptr inbounds i8, ptr %187, i64 0
  %189 = load i8, ptr %188, align 1, !tbaa !59
  %190 = zext i8 %189 to i32
  %191 = and i32 %190, 129
  %192 = load i32, ptr %26, align 4, !tbaa !9
  %193 = shl i32 %192, 1
  %194 = or i32 %191, %193
  %195 = trunc i32 %194 to i8
  %196 = getelementptr inbounds [2 x i8], ptr %27, i64 0, i64 0
  store i8 %195, ptr %196, align 1, !tbaa !59
  %197 = load ptr, ptr %20, align 8, !tbaa !13
  %198 = getelementptr inbounds i8, ptr %197, i64 1
  %199 = load i8, ptr %198, align 1, !tbaa !59
  %200 = getelementptr inbounds [2 x i8], ptr %27, i64 0, i64 1
  store i8 %199, ptr %200, align 1, !tbaa !59
  %201 = load ptr, ptr %14, align 8, !tbaa !53
  %202 = load ptr, ptr %16, align 8, !tbaa !13
  %203 = load i32, ptr %17, align 4, !tbaa !9
  %204 = load i32, ptr %24, align 4, !tbaa !9
  %205 = getelementptr inbounds [2 x i8], ptr %27, i64 0, i64 0
  %206 = call i32 @ff_h264_handle_frag_packet(ptr noundef %201, ptr noundef %202, i32 noundef %203, i32 noundef %204, ptr noundef %205, i32 noundef 2)
  store i32 %206, ptr %28, align 4, !tbaa !9
  br label %209

207:                                              ; preds = %76
  %208 = load ptr, ptr %11, align 8, !tbaa !4
  call void (ptr, ptr, ...) @avpriv_report_missing_feature(ptr noundef %208, ptr noundef @.str.23)
  store i32 -1163346256, ptr %28, align 4, !tbaa !9
  br label %209

209:                                              ; preds = %207, %186, %130, %89
  %210 = load ptr, ptr %13, align 8, !tbaa !30
  %211 = getelementptr inbounds nuw %struct.AVStream, ptr %210, i32 0, i32 1
  %212 = load i32, ptr %211, align 8, !tbaa !62
  %213 = load ptr, ptr %14, align 8, !tbaa !53
  %214 = getelementptr inbounds nuw %struct.AVPacket, ptr %213, i32 0, i32 5
  store i32 %212, ptr %214, align 4, !tbaa !63
  %215 = load i32, ptr %28, align 4, !tbaa !9
  store i32 %215, ptr %10, align 4
  store i32 1, ptr %29, align 4
  br label %216

216:                                              ; preds = %209, %184, %177, %173, %128, %87, %73, %68, %63, %33
  call void @llvm.lifetime.end.p0(i64 4, ptr %28) #9
  call void @llvm.lifetime.end.p0(i64 2, ptr %27) #9
  call void @llvm.lifetime.end.p0(i64 4, ptr %26) #9
  call void @llvm.lifetime.end.p0(i64 4, ptr %25) #9
  call void @llvm.lifetime.end.p0(i64 4, ptr %24) #9
  call void @llvm.lifetime.end.p0(i64 4, ptr %23) #9
  call void @llvm.lifetime.end.p0(i64 4, ptr %22) #9
  call void @llvm.lifetime.end.p0(i64 4, ptr %21) #9
  call void @llvm.lifetime.end.p0(i64 8, ptr %20) #9
  %217 = load i32, ptr %10, align 4
  ret i32 %217
}