; Function Attrs: nounwind uwtable
define internal i32 @hevc_handle_packet(ptr noundef %0, ptr noundef %1, ptr noundef readonly captures(none) %2, ptr noundef %3, ptr readnone captures(none) %4, ptr noundef %5, i32 noundef %6, i16 zeroext %7, i32 %8) #1 {
  %10 = alloca [2 x i8], align 1
  call void @llvm.lifetime.start.p0(i64 2, ptr nonnull %10) #9
  %11 = icmp slt i32 %6, 3
  br i1 %11, label %12, label %13

12:                                               ; preds = %9
  tail call void (ptr, i32, ptr, ...) @av_log(ptr noundef %0, i32 noundef 16, ptr noundef nonnull @.str.16, i32 noundef %6) #9
  br label %75

13:                                               ; preds = %9
  %14 = load i8, ptr %5, align 1, !tbaa !47
  %15 = zext i8 %14 to i32
  %16 = lshr i32 %15, 1
  %17 = and i32 %16, 63
  %18 = shl nuw nsw i32 %15, 5
  %19 = and i32 %18, 32
  %20 = getelementptr inbounds nuw i8, ptr %5, i64 1
  %21 = load i8, ptr %20, align 1, !tbaa !47
  %22 = zext i8 %21 to i32
  %23 = lshr i32 %22, 3
  %24 = or disjoint i32 %19, %23
  %.not = icmp eq i32 %24, 0
  br i1 %.not, label %26, label %25

25:                                               ; preds = %13
  tail call void (ptr, ptr, ...) @avpriv_report_missing_feature(ptr noundef %0, ptr noundef nonnull @.str.17) #9
  br label %75

26:                                               ; preds = %13
  %27 = and i32 %22, 7
  %.not81 = icmp eq i32 %27, 0
  br i1 %.not81, label %28, label %29

28:                                               ; preds = %26
  tail call void (ptr, i32, ptr, ...) @av_log(ptr noundef %0, i32 noundef 16, ptr noundef nonnull @.str.18) #9
  br label %75

29:                                               ; preds = %26
  %30 = icmp samesign ugt i32 %17, 50
  br i1 %30, label %31, label %32

31:                                               ; preds = %29
  tail call void (ptr, i32, ptr, ...) @av_log(ptr noundef %0, i32 noundef 16, ptr noundef nonnull @.str.19, i32 noundef %17) #9
  br label %75

32:                                               ; preds = %29
  switch i32 %17, label %33 [
    i32 50, label %70
    i32 49, label %48
    i32 48, label %43
  ]

33:                                               ; preds = %32
  %34 = add nuw i32 %6, 4
  %35 = tail call i32 @av_new_packet(ptr noundef %3, i32 noundef %34) #9
  %36 = icmp slt i32 %35, 0
  br i1 %36, label %75, label %37

37:                                               ; preds = %33
  %38 = zext nneg i32 %6 to i64
  %39 = getelementptr inbounds nuw i8, ptr %3, i64 24
  %40 = load ptr, ptr %39, align 8, !tbaa !48
  store i32 16777216, ptr %40, align 1
  %41 = load ptr, ptr %39, align 8, !tbaa !48
  %42 = getelementptr inbounds nuw i8, ptr %41, i64 4
  tail call void @llvm.memcpy.p0.p0.i64(ptr nonnull align 1 %42, ptr nonnull align 1 %5, i64 %38, i1 false)
  br label %71

43:                                               ; preds = %32
  %44 = load i32, ptr %1, align 8, !tbaa !49
  %.not82 = icmp eq i32 %44, 0
  %.071.v = select i1 %.not82, i32 -2, i32 -4
  %.071 = add nsw i32 %.071.v, %6
  %.070.v = select i1 %.not82, i64 2, i64 4
  %.070 = getelementptr inbounds nuw i8, ptr %5, i64 %.070.v
  %.not83 = icmp ne i32 %44, 0
  %45 = zext i1 %.not83 to i32
  %46 = tail call i32 @ff_h264_handle_aggregated_packet(ptr noundef %0, ptr noundef nonnull %1, ptr noundef %3, ptr noundef nonnull %.070, i32 noundef %.071, i32 noundef %45, ptr noundef null, i32 noundef 0) #9
  %47 = icmp slt i32 %46, 0
  br i1 %47, label %75, label %71

48:                                               ; preds = %32
  %49 = getelementptr inbounds nuw i8, ptr %5, i64 2
  %50 = load i8, ptr %49, align 1, !tbaa !47
  %51 = zext i8 %50 to i32
  %52 = and i32 %51, 128
  %53 = and i32 %51, 63
  %54 = load i32, ptr %1, align 8, !tbaa !49
  %.not84 = icmp eq i32 %54, 0
  %.172.v = select i1 %.not84, i32 -3, i32 -5
  %.172 = add nsw i32 %.172.v, %6
  %.1.v = select i1 %.not84, i64 3, i64 5
  %.1 = getelementptr inbounds nuw i8, ptr %5, i64 %.1.v
  tail call void (ptr, i32, ptr, ...) @av_log(ptr noundef %0, i32 noundef 56, ptr noundef nonnull @.str.20, i32 noundef %53, i32 noundef %.172) #9
  %55 = icmp slt i32 %.172, 1
  br i1 %55, label %56, label %59

56:                                               ; preds = %48
  %57 = icmp slt i32 %.172, 0
  br i1 %57, label %58, label %75

58:                                               ; preds = %56
  tail call void (ptr, i32, ptr, ...) @av_log(ptr noundef %0, i32 noundef 16, ptr noundef nonnull @.str.21, i32 noundef %.172, i32 noundef 49) #9
  br label %75

59:                                               ; preds = %48
  %60 = and i32 %51, 192
  %or.cond = icmp eq i32 %60, 192
  br i1 %or.cond, label %61, label %62

61:                                               ; preds = %59
  tail call void (ptr, i32, ptr, ...) @av_log(ptr noundef %0, i32 noundef 16, ptr noundef nonnull @.str.22) #9
  br label %75

62:                                               ; preds = %59
  %63 = load i8, ptr %5, align 1, !tbaa !47
  %64 = and i8 %63, -127
  %.tr = trunc nuw nsw i32 %53 to i8
  %65 = shl nuw nsw i8 %.tr, 1
  %66 = or disjoint i8 %64, %65
  store i8 %66, ptr %10, align 1, !tbaa !47
  %67 = load i8, ptr %20, align 1, !tbaa !47
  %68 = getelementptr inbounds nuw i8, ptr %10, i64 1
  store i8 %67, ptr %68, align 1, !tbaa !47
  %69 = call i32 @ff_h264_handle_frag_packet(ptr noundef %3, ptr noundef nonnull %.1, i32 noundef %.172, i32 noundef %52, ptr noundef nonnull %10, i32 noundef 2) #9
  br label %71

70:                                               ; preds = %32
  tail call void (ptr, ptr, ...) @avpriv_report_missing_feature(ptr noundef %0, ptr noundef nonnull @.str.23) #9
  br label %71

71:                                               ; preds = %43, %70, %62, %37
  %.0 = phi i32 [ %35, %37 ], [ %46, %43 ], [ %69, %62 ], [ -1163346256, %70 ]
  %72 = getelementptr inbounds nuw i8, ptr %2, i64 8
  %73 = load i32, ptr %72, align 8, !tbaa !50
  %74 = getelementptr inbounds nuw i8, ptr %3, i64 36
  store i32 %73, ptr %74, align 4, !tbaa !51
  br label %75

75:                                               ; preds = %56, %43, %33, %71, %61, %58, %31, %28, %25, %12
  %.069 = phi i32 [ -1094995529, %12 ], [ -1163346256, %25 ], [ -1094995529, %31 ], [ %.0, %71 ], [ -1094995529, %58 ], [ -1094995529, %61 ], [ -1094995529, %28 ], [ %35, %33 ], [ %46, %43 ], [ -11, %56 ]
  call void @llvm.lifetime.end.p0(i64 2, ptr nonnull %10) #9
  ret i32 %.069
}